target datalayout = "e-m:e-p270:32:32-p271:32:32-p272:64:64-i64:64-i128:128-f80:128-n8:16:32:64-S128"
target triple = "x86_64-pc-linux-gnu"

%struct.ItemPointerData = type { %struct.BlockIdData, i16 }
%struct.BlockIdData = type { i16, i16 }
%struct.ScanKeyData = type { i32, i16, i16, i32, i32, %struct.FmgrInfo, i64 }
%struct.FmgrInfo = type { ptr, i32, i16, i8, i8, i8, ptr, ptr, ptr }
%struct.FormData_pg_depend = type { i32, i32, i32, i32, i32, i32, i8 }
%struct.HeapTupleData = type { i32, %struct.ItemPointerData, i32, ptr }
%struct.HeapTupleHeaderData = type { %union.anon, %struct.ItemPointerData, i16, i16, i8, [0 x i8] }
%union.anon = type { %struct.HeapTupleFields }
%struct.HeapTupleFields = type { i32, i32, %union.anon.0 }
%union.anon.0 = type { i32 }

; Function Attrs: inlinehint nounwind uwtable
define internal ptr @GETSTRUCT(ptr noundef %0) #3 {
  %2 = alloca ptr, align 8
  store ptr %0, ptr %2, align 8
  %3 = load ptr, ptr %2, align 8
  %4 = getelementptr inbounds nuw %struct.HeapTupleData, ptr %3, i32 0, i32 3
  %5 = load ptr, ptr %4, align 8
  %6 = load ptr, ptr %2, align 8
  %7 = getelementptr inbounds nuw %struct.HeapTupleData, ptr %6, i32 0, i32 3
  %8 = load ptr, ptr %7, align 8
  %9 = getelementptr inbounds nuw %struct.HeapTupleHeaderData, ptr %8, i32 0, i32 4
  %10 = load i8, ptr %9, align 2
  %11 = zext i8 %10 to i32
  %12 = sext i32 %11 to i64
  %13 = getelementptr inbounds i8, ptr %5, i64 %12
  ret ptr %13
}

; Function Attrs: inlinehint nounwind uwtable
define internal i64 @ObjectIdGetDatum(i32 noundef %0) #3 {
  %2 = alloca i32, align 4
  store i32 %0, ptr %2, align 4
  %3 = load i32, ptr %2, align 4
  %4 = zext i32 %3 to i64
  ret i64 %4
}

; Function Attrs: nounwind uwtable
define dso_local ptr @getAutoExtensionsOfObject(i32 noundef %0, i32 noundef %1) #0 {
  %3 = alloca i32, align 4
  %4 = alloca i32, align 4
  %5 = alloca ptr, align 8
  %6 = alloca ptr, align 8
  %7 = alloca [2 x %struct.ScanKeyData], align 16
  %8 = alloca ptr, align 8
  %9 = alloca ptr, align 8
  %10 = alloca ptr, align 8
  store i32 %0, ptr %3, align 4
  store i32 %1, ptr %4, align 4
  call void @llvm.lifetime.start.p0(i64 8, ptr %5) #6
  store ptr null, ptr %5, align 8
  call void @llvm.lifetime.start.p0(i64 8, ptr %6) #6
  call void @llvm.lifetime.start.p0(i64 144, ptr %7) #6
  call void @llvm.lifetime.start.p0(i64 8, ptr %8) #6
  call void @llvm.lifetime.start.p0(i64 8, ptr %9) #6
  %11 = call ptr @table_open(i32 noundef 2608, i32 noundef 1)
  store ptr %11, ptr %6, align 8
  %12 = getelementptr inbounds [2 x %struct.ScanKeyData], ptr %7, i64 0, i64 0
  %13 = load i32, ptr %3, align 4
  %14 = call i64 @ObjectIdGetDatum(i32 noundef %13)
  call void @ScanKeyInit(ptr noundef %12, i16 noundef signext 1, i16 noundef zeroext 3, i32 noundef 184, i64 noundef %14)
  %15 = getelementptr inbounds [2 x %struct.ScanKeyData], ptr %7, i64 0, i64 1
  %16 = load i32, ptr %4, align 4
  %17 = call i64 @ObjectIdGetDatum(i32 noundef %16)
  call void @ScanKeyInit(ptr noundef %15, i16 noundef signext 2, i16 noundef zeroext 3, i32 noundef 184, i64 noundef %17)
  %18 = load ptr, ptr %6, align 8
  %19 = getelementptr inbounds [2 x %struct.ScanKeyData], ptr %7, i64 0, i64 0
  %20 = call ptr @systable_beginscan(ptr noundef %18, i32 noundef 2673, i1 noundef zeroext true, ptr noundef null, i32 noundef 2, ptr noundef %19)
  store ptr %20, ptr %8, align 8
  br label %21

21:                                               ; preds = %44, %2
  %22 = load ptr, ptr %8, align 8
  %23 = call ptr @systable_getnext(ptr noundef %22)
  store ptr %23, ptr %9, align 8
  %24 = icmp ne ptr %23, null
  br i1 %24, label %25, label %45

25:                                               ; preds = %21
  call void @llvm.lifetime.start.p0(i64 8, ptr %10) #6
  %26 = load ptr, ptr %9, align 8
  %27 = call ptr @GETSTRUCT(ptr noundef %26)
  store ptr %27, ptr %10, align 8
  %28 = load ptr, ptr %10, align 8
  %29 = getelementptr inbounds nuw %struct.FormData_pg_depend, ptr %28, i32 0, i32 3
  %30 = load i32, ptr %29, align 4
  %31 = icmp eq i32 %30, 3079
  br i1 %31, label %32, label %44

32:                                               ; preds = %25
  %33 = load ptr, ptr %10, align 8
  %34 = getelementptr inbounds nuw %struct.FormData_pg_depend, ptr %33, i32 0, i32 6
  %35 = load i8, ptr %34, align 4
  %36 = sext i8 %35 to i32
  %37 = icmp eq i32 %36, 120
  br i1 %37, label %38, label %44

38:                                               ; preds = %32
  %39 = load ptr, ptr %5, align 8
  %40 = load ptr, ptr %10, align 8
  %41 = getelementptr inbounds nuw %struct.FormData_pg_depend, ptr %40, i32 0, i32 4
  %42 = load i32, ptr %41, align 4
  %43 = call ptr @lappend_oid(ptr noundef %39, i32 noundef %42)
  store ptr %43, ptr %5, align 8
  br label %44

44:                                               ; preds = %38, %32, %25
  call void @llvm.lifetime.end.p0(i64 8, ptr %10) #6
  br label %21, !llvm.loop !16

45:                                               ; preds = %21
  %46 = load ptr, ptr %8, align 8
  call void @systable_endscan(ptr noundef %46)
  %47 = load ptr, ptr %6, align 8
  call void @table_close(ptr noundef %47, i32 noundef 1)
  %48 = load ptr, ptr %5, align 8
  call void @llvm.lifetime.end.p0(i64 8, ptr %9) #6
  call void @llvm.lifetime.end.p0(i64 8, ptr %8) #6
  call void @llvm.lifetime.end.p0(i64 144, ptr %7) #6
  call void @llvm.lifetime.end.p0(i64 8, ptr %6) #6
  call void @llvm.lifetime.end.p0(i64 8, ptr %5) #6
  ret ptr %48
}