; Function Attrs: nounwind uwtable
define dso_local ptr @getAutoExtensionsOfObject(i32 noundef %0, i32 noundef %1) local_unnamed_addr #0 {
  %3 = alloca [2 x %struct.ScanKeyData], align 16
  call void @llvm.lifetime.start.p0(i64 144, ptr nonnull %3) #7
  %4 = tail call ptr @table_open(i32 noundef 2608, i32 noundef 1) #7
  %5 = zext i32 %0 to i64
  call void @ScanKeyInit(ptr noundef nonnull %3, i16 noundef signext 1, i16 noundef zeroext 3, i32 noundef 184, i64 noundef %5) #7
  %6 = getelementptr inbounds nuw i8, ptr %3, i64 72
  %7 = zext i32 %1 to i64
  call void @ScanKeyInit(ptr noundef nonnull %6, i16 noundef signext 2, i16 noundef zeroext 3, i32 noundef 184, i64 noundef %7) #7
  %8 = call ptr @systable_beginscan(ptr noundef %4, i32 noundef 2673, i1 noundef zeroext true, ptr noundef null, i32 noundef 2, ptr noundef nonnull %3) #7
  %9 = call ptr @systable_getnext(ptr noundef %8) #7
  %.not12 = icmp eq ptr %9, null
  br i1 %.not12, label %._crit_edge, label %.lr.ph

.lr.ph:                                           ; preds = %2, %27
  %10 = phi ptr [ %28, %27 ], [ %9, %2 ]
  %.013 = phi ptr [ %.1, %27 ], [ null, %2 ]
  %11 = getelementptr i8, ptr %10, i64 16
  %.val = load ptr, ptr %11, align 8
  %12 = getelementptr inbounds nuw i8, ptr %.val, i64 22
  %13 = load i8, ptr %12, align 2
  %14 = zext i8 %13 to i64
  %15 = getelementptr inbounds nuw i8, ptr %.val, i64 %14
  %16 = getelementptr inbounds nuw i8, ptr %15, i64 12
  %17 = load i32, ptr %16, align 4
  %18 = icmp eq i32 %17, 3079
  br i1 %18, label %19, label %27

19:                                               ; preds = %.lr.ph
  %20 = getelementptr inbounds nuw i8, ptr %15, i64 24
  %21 = load i8, ptr %20, align 4
  %22 = icmp eq i8 %21, 120
  br i1 %22, label %23, label %27

23:                                               ; preds = %19
  %24 = getelementptr inbounds nuw i8, ptr %15, i64 16
  %25 = load i32, ptr %24, align 4
  %26 = call ptr @lappend_oid(ptr noundef %.013, i32 noundef %25) #7
  br label %27

27:                                               ; preds = %23, %19, %.lr.ph
  %.1 = phi ptr [ %26, %23 ], [ %.013, %19 ], [ %.013, %.lr.ph ]
  %28 = call ptr @systable_getnext(ptr noundef %8) #7
  %.not = icmp eq ptr %28, null
  br i1 %.not, label %._crit_edge, label %.lr.ph, !llvm.loop !15

._crit_edge:                                      ; preds = %27, %2
  %.0.lcssa = phi ptr [ null, %2 ], [ %.1, %27 ]
  call void @systable_endscan(ptr noundef %8) #7
  call void @table_close(ptr noundef %4, i32 noundef 1) #7
  call void @llvm.lifetime.end.p0(i64 144, ptr nonnull %3) #7
  ret ptr %.0.lcssa
}